; Function Attrs: nounwind uwtable
define nonnull ptr @l_Lean_PrettyPrinter_Delaborator_OptionsPerPos_merge___lambda__1___boxed(ptr noundef %0, ptr noundef %1) #0 {
  %3 = ptrtoint ptr %0 to i64
  %4 = and i64 %3, 1
  %.not.i8 = icmp eq i64 %4, 0
  br i1 %.not.i8, label %lean_nat_lt.exit.thread12.i, label %5, !prof !4

5:                                                ; preds = %2
  %6 = ptrtoint ptr %1 to i64
  %7 = and i64 %6, 1
  %.not14.i = icmp eq i64 %7, 0
  br i1 %.not14.i, label %lean_nat_lt.exit.i, label %lean_nat_lt.exit.thread.i, !prof !4

lean_nat_lt.exit.i:                               ; preds = %5
  %8 = tail call zeroext i1 @lean_nat_big_lt(ptr noundef %0, ptr noundef %1) #5
  br i1 %8, label %l_Lean_PrettyPrinter_Delaborator_OptionsPerPos_merge___lambda__1.exit, label %.critedge.i.i

lean_nat_lt.exit.thread12.i:                      ; preds = %2
  %9 = tail call zeroext i1 @lean_nat_big_lt(ptr noundef %0, ptr noundef %1) #5
  br i1 %9, label %l_Lean_PrettyPrinter_Delaborator_OptionsPerPos_merge___lambda__1.exit, label %.critedge.i.i

lean_nat_lt.exit.thread.i:                        ; preds = %5
  %.not15.i = icmp ult ptr %0, %1
  br i1 %.not15.i, label %l_Lean_PrettyPrinter_Delaborator_OptionsPerPos_merge___lambda__1.exit, label %.thread.i

.thread.i:                                        ; preds = %lean_nat_lt.exit.thread.i
  %10 = icmp eq ptr %0, %1
  br label %lean_nat_eq.exit.i

.critedge.i.i:                                    ; preds = %lean_nat_lt.exit.thread12.i, %lean_nat_lt.exit.i
  %11 = tail call zeroext i1 @lean_nat_big_eq(ptr noundef %0, ptr noundef %1) #5
  br label %lean_nat_eq.exit.i

lean_nat_eq.exit.i:                               ; preds = %.critedge.i.i, %.thread.i
  %.0.i.i = phi i1 [ %10, %.thread.i ], [ %11, %.critedge.i.i ]
  %12 = select i1 %.0.i.i, i64 3, i64 5
  br label %l_Lean_PrettyPrinter_Delaborator_OptionsPerPos_merge___lambda__1.exit

l_Lean_PrettyPrinter_Delaborator_OptionsPerPos_merge___lambda__1.exit: ; preds = %lean_nat_lt.exit.i, %lean_nat_lt.exit.thread12.i, %lean_nat_lt.exit.thread.i, %lean_nat_eq.exit.i
  %.1.i = phi i64 [ %12, %lean_nat_eq.exit.i ], [ 1, %lean_nat_lt.exit.i ], [ 1, %lean_nat_lt.exit.thread.i ], [ 1, %lean_nat_lt.exit.thread12.i ]
  %13 = ptrtoint ptr %1 to i64
  %14 = and i64 %13, 1
  %.not = icmp eq i64 %14, 0
  br i1 %.not, label %15, label %lean_dec.exit5

15:                                               ; preds = %l_Lean_PrettyPrinter_Delaborator_OptionsPerPos_merge___lambda__1.exit
  %16 = load i32, ptr %1, align 4, !tbaa !9
  %17 = icmp sgt i32 %16, 1
  br i1 %17, label %18, label %20, !prof !12

18:                                               ; preds = %15
  %19 = add nsw i32 %16, -1
  store i32 %19, ptr %1, align 4, !tbaa !9
  br label %lean_dec.exit5

20:                                               ; preds = %15
  %.not.i = icmp eq i32 %16, 0
  br i1 %.not.i, label %lean_dec.exit5, label %21

21:                                               ; preds = %20
  tail call void @lean_dec_ref_cold(ptr noundef nonnull %1) #5
  br label %lean_dec.exit5

lean_dec.exit5:                                   ; preds = %21, %20, %18, %l_Lean_PrettyPrinter_Delaborator_OptionsPerPos_merge___lambda__1.exit
  br i1 %.not.i8, label %22, label %lean_dec.exit

22:                                               ; preds = %lean_dec.exit5
  %23 = load i32, ptr %0, align 4, !tbaa !9
  %24 = icmp sgt i32 %23, 1
  br i1 %24, label %25, label %27, !prof !12

25:                                               ; preds = %22
  %26 = add nsw i32 %23, -1
  store i32 %26, ptr %0, align 4, !tbaa !9
  br label %lean_dec.exit

27:                                               ; preds = %22
  %.not.i6 = icmp eq i32 %23, 0
  br i1 %.not.i6, label %lean_dec.exit, label %28

28:                                               ; preds = %27
  tail call void @lean_dec_ref_cold(ptr noundef nonnull %0) #5
  br label %lean_dec.exit

lean_dec.exit:                                    ; preds = %28, %27, %25, %lean_dec.exit5
  %29 = inttoptr i64 %.1.i to ptr
  ret ptr %29
}